00030400  BC20180300        mov esp,0x31820
00030405  0F0105201C0300    sgdt [dword 0x31c20]
0003040C  E83B000000        call dword 0x3044c
00030411  0F0115201C0300    lgdt [dword 0x31c20]
00030418  EA1F0403000800    jmp dword 0x8:0x3041f
0003041F  F4                hlt
00030420  55                push ebp
00030421  89E5              mov ebp,esp
00030423  56                push esi
00030424  57                push edi
00030425  51                push ecx
00030426  8B7D08            mov edi,[ebp+0x8]
00030429  8B750C            mov esi,[ebp+0xc]
0003042C  8B4D10            mov ecx,[ebp+0x10]
0003042F  83F900            cmp ecx,byte +0x0
00030432  740B              jz 0x3043f
00030434  3E8A06            mov al,[ds:esi]
00030437  46                inc esi
00030438  268807            mov [es:edi],al
0003043B  47                inc edi
0003043C  49                dec ecx
0003043D  EBF0              jmp short 0x3042f
0003043F  8B4508            mov eax,[ebp+0x8]
00030442  59                pop ecx
00030443  5F                pop edi
00030444  5E                pop esi
00030445  89EC              mov esp,ebp
00030447  5D                pop ebp
00030448  C3                ret
00030449  6690              xchg ax,ax
0003044B  90                nop
0003044C  55                push ebp
0003044D  89E5              mov ebp,esp
0003044F  83EC28            sub esp,byte +0x28
00030452  C7042400050300    mov dword [esp],0x30500
00030459  E862000000        call dword 0x304c0
0003045E  B8201C0300        mov eax,0x31c20
00030463  0FB700            movzx eax,word [eax]
00030466  0FB7C0            movzx eax,ax
00030469  8D5001            lea edx,[eax+0x1]
0003046C  B8221C0300        mov eax,0x31c22
00030471  8B00              mov eax,[eax]
00030473  89542408          mov [esp+0x8],edx
00030477  89442404          mov [esp+0x4],eax
0003047B  C7042420180300    mov dword [esp],0x31820
00030482  E899FFFFFF        call dword 0x30420
00030487  C745F0201C0300    mov dword [ebp-0x10],0x31c20
0003048E  C745F4221C0300    mov dword [ebp-0xc],0x31c22
00030495  8B45F0            mov eax,[ebp-0x10]
00030498  66C700FF03        mov word [eax],0x3ff
0003049D  BA20180300        mov edx,0x31820
000304A2  8B45F4            mov eax,[ebp-0xc]
000304A5  8910              mov [eax],edx
000304A7  C7042430050300    mov dword [esp],0x30530
000304AE  E80D000000        call dword 0x304c0
000304B3  C9                leave
000304B4  C3                ret
000304B5  6690              xchg ax,ax
000304B7  6690              xchg ax,ax
000304B9  6690              xchg ax,ax
000304BB  6690              xchg ax,ax
000304BD  6690              xchg ax,ax
000304BF  90                nop
000304C0  55                push ebp
000304C1  89E5              mov ebp,esp
000304C3  8B7508            mov esi,[ebp+0x8]
000304C6  8B3D00100300      mov edi,[dword 0x31000]
000304CC  B40F              mov ah,0xf
000304CE  AC                lodsb
000304CF  84C0              test al,al
000304D1  7423              jz 0x304f6
000304D3  3C0A              cmp al,0xa
000304D5  7516              jnz 0x304ed
000304D7  50                push eax
000304D8  89F8              mov eax,edi
000304DA  B3A0              mov bl,0xa0
000304DC  F6F3              div bl
000304DE  25FF000000        and eax,0xff
000304E3  40                inc eax
000304E4  B3A0              mov bl,0xa0
000304E6  F6E3              mul bl
000304E8  89C7              mov edi,eax
000304EA  58                pop eax
000304EB  EBE1              jmp short 0x304ce
000304ED  65668907          mov [gs:edi],ax
000304F1  83C702            add edi,byte +0x2
000304F4  EBD8              jmp short 0x304ce
000304F6  893D00100300      mov [dword 0x31000],edi
000304FC  5D                pop ebp
000304FD  C3                ret
000304FE  0000              add [eax],al
00030500  0A0A              or cl,[edx]
00030502  0A0A              or cl,[edx]
00030504  0A0A              or cl,[edx]
00030506  0A0A              or cl,[edx]
00030508  0A0A              or cl,[edx]
0003050A  0A0A              or cl,[edx]
0003050C  0A0A              or cl,[edx]
0003050E  0A0A              or cl,[edx]
00030510  2D2D2D2D2D        sub eax,0x2d2d2d2d
00030515  2D22637374        sub eax,0x74736322
0003051A  61                popad
0003051B  7274              jc 0x30591
0003051D  2220              and ah,[eax]
0003051F  206265            and [edx+0x65],ah
00030522  67696E732D2D2D2D  imul ebp,[bp+0x73],dword 0x2d2d2d2d
0003052A  2D2D0A0000        sub eax,0xa2d
0003052F  002D2D2D2D2D      add [dword 0x2d2d2d2d],ch
00030535  2D22637374        sub eax,0x74736322
0003053A  61                popad
0003053B  7274              jc 0x305b1
0003053D  2220              and ah,[eax]
0003053F  206669            and [esi+0x69],ah
00030542  6E                outsb
00030543  69736865642D2D    imul esi,[ebx+0x68],dword 0x2d2d6465
0003054A  2D2D2D2D0A        sub eax,0xa2d2d2d
0003054F  0000              add [eax],al
00030551  0000              add [eax],al
00030553  0000              add [eax],al
00030555  0000              add [eax],al
00030557  0000              add [eax],al
00030559  0000              add [eax],al
0003055B  0000              add [eax],al
0003055D  0000              add [eax],al
0003055F  0000              add [eax],al
00030561  0000              add [eax],al
00030563  0000              add [eax],al
00030565  0000              add [eax],al
00030567  0000              add [eax],al
00030569  0000              add [eax],al
0003056B  0000              add [eax],al
0003056D  0000              add [eax],al
0003056F  0000              add [eax],al
00030571  0000              add [eax],al
00030573  0000              add [eax],al
00030575  0000              add [eax],al
00030577  0000              add [eax],al
00030579  0000              add [eax],al
0003057B  0000              add [eax],al
0003057D  0000              add [eax],al
0003057F  0000              add [eax],al
00030581  0000              add [eax],al
00030583  0000              add [eax],al
00030585  0000              add [eax],al
00030587  0000              add [eax],al
00030589  0000              add [eax],al
0003058B  0000              add [eax],al
0003058D  0000              add [eax],al
0003058F  0000              add [eax],al
00030591  0000              add [eax],al
00030593  0000              add [eax],al
00030595  0000              add [eax],al
00030597  0000              add [eax],al
00030599  0000              add [eax],al
0003059B  0000              add [eax],al
0003059D  0000              add [eax],al
0003059F  0000              add [eax],al
000305A1  0000              add [eax],al
000305A3  0000              add [eax],al
000305A5  0000              add [eax],al
000305A7  0000              add [eax],al
000305A9  0000              add [eax],al
000305AB  0000              add [eax],al
000305AD  0000              add [eax],al
000305AF  0000              add [eax],al
000305B1  0000              add [eax],al
000305B3  0000              add [eax],al
000305B5  0000              add [eax],al
000305B7  0000              add [eax],al
000305B9  0000              add [eax],al
000305BB  0000              add [eax],al
000305BD  0000              add [eax],al
000305BF  0000              add [eax],al
000305C1  0000              add [eax],al
000305C3  0000              add [eax],al
000305C5  0000              add [eax],al
000305C7  0000              add [eax],al
000305C9  0000              add [eax],al
000305CB  0000              add [eax],al
000305CD  0000              add [eax],al
000305CF  0000              add [eax],al
000305D1  0000              add [eax],al
000305D3  0000              add [eax],al
000305D5  0000              add [eax],al
000305D7  0000              add [eax],al
000305D9  0000              add [eax],al
000305DB  0000              add [eax],al
000305DD  0000              add [eax],al
000305DF  0000              add [eax],al
000305E1  0000              add [eax],al
000305E3  0000              add [eax],al
000305E5  0000              add [eax],al
000305E7  0000              add [eax],al
000305E9  0000              add [eax],al
000305EB  0000              add [eax],al
000305ED  0000              add [eax],al
000305EF  0000              add [eax],al
000305F1  0000              add [eax],al
000305F3  0000              add [eax],al
000305F5  0000              add [eax],al
000305F7  0000              add [eax],al
000305F9  0000              add [eax],al
000305FB  0000              add [eax],al
000305FD  0000              add [eax],al
000305FF  0000              add [eax],al
00030601  0000              add [eax],al
00030603  0000              add [eax],al
00030605  0000              add [eax],al
00030607  0000              add [eax],al
00030609  0000              add [eax],al
0003060B  0000              add [eax],al
0003060D  0000              add [eax],al
0003060F  0000              add [eax],al
00030611  0000              add [eax],al
00030613  0000              add [eax],al
00030615  0000              add [eax],al
00030617  0000              add [eax],al
00030619  0000              add [eax],al
0003061B  0000              add [eax],al
0003061D  0000              add [eax],al
0003061F  0000              add [eax],al
00030621  0000              add [eax],al
00030623  0000              add [eax],al
00030625  0000              add [eax],al
00030627  0000              add [eax],al
00030629  0000              add [eax],al
0003062B  0000              add [eax],al
0003062D  0000              add [eax],al
0003062F  0000              add [eax],al
00030631  0000              add [eax],al
00030633  0000              add [eax],al
00030635  0000              add [eax],al
00030637  0000              add [eax],al
00030639  0000              add [eax],al
0003063B  0000              add [eax],al
0003063D  0000              add [eax],al
0003063F  0000              add [eax],al
00030641  0000              add [eax],al
00030643  0000              add [eax],al
00030645  0000              add [eax],al
00030647  0000              add [eax],al
00030649  0000              add [eax],al
0003064B  0000              add [eax],al
0003064D  0000              add [eax],al
0003064F  0000              add [eax],al
00030651  0000              add [eax],al
00030653  0000              add [eax],al
00030655  0000              add [eax],al
00030657  0000              add [eax],al
00030659  0000              add [eax],al
0003065B  0000              add [eax],al
0003065D  0000              add [eax],al
0003065F  0000              add [eax],al
00030661  0000              add [eax],al
00030663  0000              add [eax],al
00030665  0000              add [eax],al
00030667  0000              add [eax],al
00030669  0000              add [eax],al
0003066B  0000              add [eax],al
0003066D  0000              add [eax],al
0003066F  0000              add [eax],al
00030671  0000              add [eax],al
00030673  0000              add [eax],al
00030675  0000              add [eax],al
00030677  0000              add [eax],al
00030679  0000              add [eax],al
0003067B  0000              add [eax],al
0003067D  0000              add [eax],al
0003067F  0000              add [eax],al
00030681  0000              add [eax],al
00030683  0000              add [eax],al
00030685  0000              add [eax],al
00030687  0000              add [eax],al
00030689  0000              add [eax],al
0003068B  0000              add [eax],al
0003068D  0000              add [eax],al
0003068F  0000              add [eax],al
00030691  0000              add [eax],al
00030693  0000              add [eax],al
00030695  0000              add [eax],al
00030697  0000              add [eax],al
00030699  0000              add [eax],al
0003069B  0000              add [eax],al
0003069D  0000              add [eax],al
0003069F  0000              add [eax],al
000306A1  0000              add [eax],al
000306A3  0000              add [eax],al
000306A5  0000              add [eax],al
000306A7  0000              add [eax],al
000306A9  0000              add [eax],al
000306AB  0000              add [eax],al
000306AD  0000              add [eax],al
000306AF  0000              add [eax],al
000306B1  0000              add [eax],al
000306B3  0000              add [eax],al
000306B5  0000              add [eax],al
000306B7  0000              add [eax],al
000306B9  0000              add [eax],al
000306BB  0000              add [eax],al
000306BD  0000              add [eax],al
000306BF  0000              add [eax],al
000306C1  0000              add [eax],al
000306C3  0000              add [eax],al
000306C5  0000              add [eax],al
000306C7  0000              add [eax],al
000306C9  0000              add [eax],al
000306CB  0000              add [eax],al
000306CD  0000              add [eax],al
000306CF  0000              add [eax],al
000306D1  0000              add [eax],al
000306D3  0000              add [eax],al
000306D5  0000              add [eax],al
000306D7  0000              add [eax],al
000306D9  0000              add [eax],al
000306DB  0000              add [eax],al
000306DD  0000              add [eax],al
000306DF  0000              add [eax],al
000306E1  0000              add [eax],al
000306E3  0000              add [eax],al
000306E5  0000              add [eax],al
000306E7  0000              add [eax],al
000306E9  0000              add [eax],al
000306EB  0000              add [eax],al
000306ED  0000              add [eax],al
000306EF  0000              add [eax],al
000306F1  0000              add [eax],al
000306F3  0000              add [eax],al
000306F5  0000              add [eax],al
000306F7  0000              add [eax],al
000306F9  0000              add [eax],al
000306FB  0000              add [eax],al
000306FD  0000              add [eax],al
000306FF  0000              add [eax],al
00030701  0000              add [eax],al
00030703  0000              add [eax],al
00030705  0000              add [eax],al
00030707  0000              add [eax],al
00030709  0000              add [eax],al
0003070B  0000              add [eax],al
0003070D  0000              add [eax],al
0003070F  0000              add [eax],al
00030711  0000              add [eax],al
00030713  0000              add [eax],al
00030715  0000              add [eax],al
00030717  0000              add [eax],al
00030719  0000              add [eax],al
0003071B  0000              add [eax],al
0003071D  0000              add [eax],al
0003071F  0000              add [eax],al
00030721  0000              add [eax],al
00030723  0000              add [eax],al
00030725  0000              add [eax],al
00030727  0000              add [eax],al
00030729  0000              add [eax],al
0003072B  0000              add [eax],al
0003072D  0000              add [eax],al
0003072F  0000              add [eax],al
00030731  0000              add [eax],al
00030733  0000              add [eax],al
00030735  0000              add [eax],al
00030737  0000              add [eax],al
00030739  0000              add [eax],al
0003073B  0000              add [eax],al
0003073D  0000              add [eax],al
0003073F  0000              add [eax],al
00030741  0000              add [eax],al
00030743  0000              add [eax],al
00030745  0000              add [eax],al
00030747  0000              add [eax],al
00030749  0000              add [eax],al
0003074B  0000              add [eax],al
0003074D  0000              add [eax],al
0003074F  0000              add [eax],al
00030751  0000              add [eax],al
00030753  0000              add [eax],al
00030755  0000              add [eax],al
00030757  0000              add [eax],al
00030759  0000              add [eax],al
0003075B  0000              add [eax],al
0003075D  0000              add [eax],al
0003075F  0000              add [eax],al
00030761  0000              add [eax],al
00030763  0000              add [eax],al
00030765  0000              add [eax],al
00030767  0000              add [eax],al
00030769  0000              add [eax],al
0003076B  0000              add [eax],al
0003076D  0000              add [eax],al
0003076F  0000              add [eax],al
00030771  0000              add [eax],al
00030773  0000              add [eax],al
00030775  0000              add [eax],al
00030777  0000              add [eax],al
00030779  0000              add [eax],al
0003077B  0000              add [eax],al
0003077D  0000              add [eax],al
0003077F  0000              add [eax],al
00030781  0000              add [eax],al
00030783  0000              add [eax],al
00030785  0000              add [eax],al
00030787  0000              add [eax],al
00030789  0000              add [eax],al
0003078B  0000              add [eax],al
0003078D  0000              add [eax],al
0003078F  0000              add [eax],al
00030791  0000              add [eax],al
00030793  0000              add [eax],al
00030795  0000              add [eax],al
00030797  0000              add [eax],al
00030799  0000              add [eax],al
0003079B  0000              add [eax],al
0003079D  0000              add [eax],al
0003079F  0000              add [eax],al
000307A1  0000              add [eax],al
000307A3  0000              add [eax],al
000307A5  0000              add [eax],al
000307A7  0000              add [eax],al
000307A9  0000              add [eax],al
000307AB  0000              add [eax],al
000307AD  0000              add [eax],al
000307AF  0000              add [eax],al
000307B1  0000              add [eax],al
000307B3  0000              add [eax],al
000307B5  0000              add [eax],al
000307B7  0000              add [eax],al
000307B9  0000              add [eax],al
000307BB  0000              add [eax],al
000307BD  0000              add [eax],al
000307BF  0000              add [eax],al
000307C1  0000              add [eax],al
000307C3  0000              add [eax],al
000307C5  0000              add [eax],al
000307C7  0000              add [eax],al
000307C9  0000              add [eax],al
000307CB  0000              add [eax],al
000307CD  0000              add [eax],al
000307CF  0000              add [eax],al
000307D1  0000              add [eax],al
000307D3  0000              add [eax],al
000307D5  0000              add [eax],al
000307D7  0000              add [eax],al
000307D9  0000              add [eax],al
000307DB  0000              add [eax],al
000307DD  0000              add [eax],al
000307DF  0000              add [eax],al
000307E1  0000              add [eax],al
000307E3  0000              add [eax],al
000307E5  0000              add [eax],al
000307E7  0000              add [eax],al
000307E9  0000              add [eax],al
000307EB  0000              add [eax],al
000307ED  0000              add [eax],al
000307EF  0000              add [eax],al
000307F1  0000              add [eax],al
000307F3  0000              add [eax],al
000307F5  0000              add [eax],al
000307F7  0000              add [eax],al
000307F9  0000              add [eax],al
000307FB  0000              add [eax],al
000307FD  0000              add [eax],al
000307FF  0000              add [eax],al
00030801  0000              add [eax],al
00030803  0000              add [eax],al
00030805  0000              add [eax],al
00030807  0000              add [eax],al
00030809  0000              add [eax],al
0003080B  0000              add [eax],al
0003080D  0000              add [eax],al
0003080F  0000              add [eax],al
00030811  0000              add [eax],al
00030813  0000              add [eax],al
00030815  0000              add [eax],al
00030817  0000              add [eax],al
00030819  0000              add [eax],al
0003081B  0000              add [eax],al
0003081D  0000              add [eax],al
0003081F  0000              add [eax],al
00030821  0000              add [eax],al
00030823  0000              add [eax],al
00030825  0000              add [eax],al
00030827  0000              add [eax],al
00030829  0000              add [eax],al
0003082B  0000              add [eax],al
0003082D  0000              add [eax],al
0003082F  0000              add [eax],al
00030831  0000              add [eax],al
00030833  0000              add [eax],al
00030835  0000              add [eax],al
00030837  0000              add [eax],al
00030839  0000              add [eax],al
0003083B  0000              add [eax],al
0003083D  0000              add [eax],al
0003083F  0000              add [eax],al
00030841  0000              add [eax],al
00030843  0000              add [eax],al
00030845  0000              add [eax],al
00030847  0000              add [eax],al
00030849  0000              add [eax],al
0003084B  0000              add [eax],al
0003084D  0000              add [eax],al
0003084F  0000              add [eax],al
00030851  0000              add [eax],al
00030853  0000              add [eax],al
00030855  0000              add [eax],al
00030857  0000              add [eax],al
00030859  0000              add [eax],al
0003085B  0000              add [eax],al
0003085D  0000              add [eax],al
0003085F  0000              add [eax],al
00030861  0000              add [eax],al
00030863  0000              add [eax],al
00030865  0000              add [eax],al
00030867  0000              add [eax],al
00030869  0000              add [eax],al
0003086B  0000              add [eax],al
0003086D  0000              add [eax],al
0003086F  0000              add [eax],al
00030871  0000              add [eax],al
00030873  0000              add [eax],al
00030875  0000              add [eax],al
00030877  0000              add [eax],al
00030879  0000              add [eax],al
0003087B  0000              add [eax],al
0003087D  0000              add [eax],al
0003087F  0000              add [eax],al
00030881  0000              add [eax],al
00030883  0000              add [eax],al
00030885  0000              add [eax],al
00030887  0000              add [eax],al
00030889  0000              add [eax],al
0003088B  0000              add [eax],al
0003088D  0000              add [eax],al
0003088F  0000              add [eax],al
00030891  0000              add [eax],al
00030893  0000              add [eax],al
00030895  0000              add [eax],al
00030897  0000              add [eax],al
00030899  0000              add [eax],al
0003089B  0000              add [eax],al
0003089D  0000              add [eax],al
0003089F  0000              add [eax],al
000308A1  0000              add [eax],al
000308A3  0000              add [eax],al
000308A5  0000              add [eax],al
000308A7  0000              add [eax],al
000308A9  0000              add [eax],al
000308AB  0000              add [eax],al
000308AD  0000              add [eax],al
000308AF  0000              add [eax],al
000308B1  0000              add [eax],al
000308B3  0000              add [eax],al
000308B5  0000              add [eax],al
000308B7  0000              add [eax],al
000308B9  0000              add [eax],al
000308BB  0000              add [eax],al
000308BD  0000              add [eax],al
000308BF  0000              add [eax],al
000308C1  0000              add [eax],al
000308C3  0000              add [eax],al
000308C5  0000              add [eax],al
000308C7  0000              add [eax],al
000308C9  0000              add [eax],al
000308CB  0000              add [eax],al
000308CD  0000              add [eax],al
000308CF  0000              add [eax],al
000308D1  0000              add [eax],al
000308D3  0000              add [eax],al
000308D5  0000              add [eax],al
000308D7  0000              add [eax],al
000308D9  0000              add [eax],al
000308DB  0000              add [eax],al
000308DD  0000              add [eax],al
000308DF  0000              add [eax],al
000308E1  0000              add [eax],al
000308E3  0000              add [eax],al
000308E5  0000              add [eax],al
000308E7  0000              add [eax],al
000308E9  0000              add [eax],al
000308EB  0000              add [eax],al
000308ED  0000              add [eax],al
000308EF  0000              add [eax],al
000308F1  0000              add [eax],al
000308F3  0000              add [eax],al
000308F5  0000              add [eax],al
000308F7  0000              add [eax],al
000308F9  0000              add [eax],al
000308FB  0000              add [eax],al
000308FD  0000              add [eax],al
000308FF  0000              add [eax],al
00030901  0000              add [eax],al
00030903  0000              add [eax],al
00030905  0000              add [eax],al
00030907  0000              add [eax],al
00030909  0000              add [eax],al
0003090B  0000              add [eax],al
0003090D  0000              add [eax],al
0003090F  0000              add [eax],al
00030911  0000              add [eax],al
00030913  0000              add [eax],al
00030915  0000              add [eax],al
00030917  0000              add [eax],al
00030919  0000              add [eax],al
0003091B  0000              add [eax],al
0003091D  0000              add [eax],al
0003091F  0000              add [eax],al
00030921  0000              add [eax],al
00030923  0000              add [eax],al
00030925  0000              add [eax],al
00030927  0000              add [eax],al
00030929  0000              add [eax],al
0003092B  0000              add [eax],al
0003092D  0000              add [eax],al
0003092F  0000              add [eax],al
00030931  0000              add [eax],al
00030933  0000              add [eax],al
00030935  0000              add [eax],al
00030937  0000              add [eax],al
00030939  0000              add [eax],al
0003093B  0000              add [eax],al
0003093D  0000              add [eax],al
0003093F  0000              add [eax],al
00030941  0000              add [eax],al
00030943  0000              add [eax],al
00030945  0000              add [eax],al
00030947  0000              add [eax],al
00030949  0000              add [eax],al
0003094B  0000              add [eax],al
0003094D  0000              add [eax],al
0003094F  0000              add [eax],al
00030951  0000              add [eax],al
00030953  0000              add [eax],al
00030955  0000              add [eax],al
00030957  0000              add [eax],al
00030959  0000              add [eax],al
0003095B  0000              add [eax],al
0003095D  0000              add [eax],al
0003095F  0000              add [eax],al
00030961  0000              add [eax],al
00030963  0000              add [eax],al
00030965  0000              add [eax],al
00030967  0000              add [eax],al
00030969  0000              add [eax],al
0003096B  0000              add [eax],al
0003096D  0000              add [eax],al
0003096F  0000              add [eax],al
00030971  0000              add [eax],al
00030973  0000              add [eax],al
00030975  0000              add [eax],al
00030977  0000              add [eax],al
00030979  0000              add [eax],al
0003097B  0000              add [eax],al
0003097D  0000              add [eax],al
0003097F  0000              add [eax],al
00030981  0000              add [eax],al
00030983  0000              add [eax],al
00030985  0000              add [eax],al
00030987  0000              add [eax],al
00030989  0000              add [eax],al
0003098B  0000              add [eax],al
0003098D  0000              add [eax],al
0003098F  0000              add [eax],al
00030991  0000              add [eax],al
00030993  0000              add [eax],al
00030995  0000              add [eax],al
00030997  0000              add [eax],al
00030999  0000              add [eax],al
0003099B  0000              add [eax],al
0003099D  0000              add [eax],al
0003099F  0000              add [eax],al
000309A1  0000              add [eax],al
000309A3  0000              add [eax],al
000309A5  0000              add [eax],al
000309A7  0000              add [eax],al
000309A9  0000              add [eax],al
000309AB  0000              add [eax],al
000309AD  0000              add [eax],al
000309AF  0000              add [eax],al
000309B1  0000              add [eax],al
000309B3  0000              add [eax],al
000309B5  0000              add [eax],al
000309B7  0000              add [eax],al
000309B9  0000              add [eax],al
000309BB  0000              add [eax],al
000309BD  0000              add [eax],al
000309BF  0000              add [eax],al
000309C1  0000              add [eax],al
000309C3  0000              add [eax],al
000309C5  0000              add [eax],al
000309C7  0000              add [eax],al
000309C9  0000              add [eax],al
000309CB  0000              add [eax],al
000309CD  0000              add [eax],al
000309CF  0000              add [eax],al
000309D1  0000              add [eax],al
000309D3  0000              add [eax],al
000309D5  0000              add [eax],al
000309D7  0000              add [eax],al
000309D9  0000              add [eax],al
000309DB  0000              add [eax],al
000309DD  0000              add [eax],al
000309DF  0000              add [eax],al
000309E1  0000              add [eax],al
000309E3  0000              add [eax],al
000309E5  0000              add [eax],al
000309E7  0000              add [eax],al
000309E9  0000              add [eax],al
000309EB  0000              add [eax],al
000309ED  0000              add [eax],al
000309EF  0000              add [eax],al
000309F1  0000              add [eax],al
000309F3  0000              add [eax],al
000309F5  0000              add [eax],al
000309F7  0000              add [eax],al
000309F9  0000              add [eax],al
000309FB  0000              add [eax],al
000309FD  0000              add [eax],al
000309FF  0000              add [eax],al
00030A01  0000              add [eax],al
00030A03  0000              add [eax],al
00030A05  0000              add [eax],al
00030A07  0000              add [eax],al
00030A09  0000              add [eax],al
00030A0B  0000              add [eax],al
00030A0D  0000              add [eax],al
00030A0F  0000              add [eax],al
00030A11  0000              add [eax],al
00030A13  0000              add [eax],al
00030A15  0000              add [eax],al
00030A17  0000              add [eax],al
00030A19  0000              add [eax],al
00030A1B  0000              add [eax],al
00030A1D  0000              add [eax],al
00030A1F  0000              add [eax],al
00030A21  0000              add [eax],al
00030A23  0000              add [eax],al
00030A25  0000              add [eax],al
00030A27  0000              add [eax],al
00030A29  0000              add [eax],al
00030A2B  0000              add [eax],al
00030A2D  0000              add [eax],al
00030A2F  0000              add [eax],al
00030A31  0000              add [eax],al
00030A33  0000              add [eax],al
00030A35  0000              add [eax],al
00030A37  0000              add [eax],al
00030A39  0000              add [eax],al
00030A3B  0000              add [eax],al
00030A3D  0000              add [eax],al
00030A3F  0000              add [eax],al
00030A41  0000              add [eax],al
00030A43  0000              add [eax],al
00030A45  0000              add [eax],al
00030A47  0000              add [eax],al
00030A49  0000              add [eax],al
00030A4B  0000              add [eax],al
00030A4D  0000              add [eax],al
00030A4F  0000              add [eax],al
00030A51  0000              add [eax],al
00030A53  0000              add [eax],al
00030A55  0000              add [eax],al
00030A57  0000              add [eax],al
00030A59  0000              add [eax],al
00030A5B  0000              add [eax],al
00030A5D  0000              add [eax],al
00030A5F  0000              add [eax],al
00030A61  0000              add [eax],al
00030A63  0000              add [eax],al
00030A65  0000              add [eax],al
00030A67  0000              add [eax],al
00030A69  0000              add [eax],al
00030A6B  0000              add [eax],al
00030A6D  0000              add [eax],al
00030A6F  0000              add [eax],al
00030A71  0000              add [eax],al
00030A73  0000              add [eax],al
00030A75  0000              add [eax],al
00030A77  0000              add [eax],al
00030A79  0000              add [eax],al
00030A7B  0000              add [eax],al
00030A7D  0000              add [eax],al
00030A7F  0000              add [eax],al
00030A81  0000              add [eax],al
00030A83  0000              add [eax],al
00030A85  0000              add [eax],al
00030A87  0000              add [eax],al
00030A89  0000              add [eax],al
00030A8B  0000              add [eax],al
00030A8D  0000              add [eax],al
00030A8F  0000              add [eax],al
00030A91  0000              add [eax],al
00030A93  0000              add [eax],al
00030A95  0000              add [eax],al
00030A97  0000              add [eax],al
00030A99  0000              add [eax],al
00030A9B  0000              add [eax],al
00030A9D  0000              add [eax],al
00030A9F  0000              add [eax],al
00030AA1  0000              add [eax],al
00030AA3  0000              add [eax],al
00030AA5  0000              add [eax],al
00030AA7  0000              add [eax],al
00030AA9  0000              add [eax],al
00030AAB  0000              add [eax],al
00030AAD  0000              add [eax],al
00030AAF  0000              add [eax],al
00030AB1  0000              add [eax],al
00030AB3  0000              add [eax],al
00030AB5  0000              add [eax],al
00030AB7  0000              add [eax],al
00030AB9  0000              add [eax],al
00030ABB  0000              add [eax],al
00030ABD  0000              add [eax],al
00030ABF  0000              add [eax],al
00030AC1  0000              add [eax],al
00030AC3  0000              add [eax],al
00030AC5  0000              add [eax],al
00030AC7  0000              add [eax],al
00030AC9  0000              add [eax],al
00030ACB  0000              add [eax],al
00030ACD  0000              add [eax],al
00030ACF  0000              add [eax],al
00030AD1  0000              add [eax],al
00030AD3  0000              add [eax],al
00030AD5  0000              add [eax],al
00030AD7  0000              add [eax],al
00030AD9  0000              add [eax],al
00030ADB  0000              add [eax],al
00030ADD  0000              add [eax],al
00030ADF  0000              add [eax],al
00030AE1  0000              add [eax],al
00030AE3  0000              add [eax],al
00030AE5  0000              add [eax],al
00030AE7  0000              add [eax],al
00030AE9  0000              add [eax],al
00030AEB  0000              add [eax],al
00030AED  0000              add [eax],al
00030AEF  0000              add [eax],al
00030AF1  0000              add [eax],al
00030AF3  0000              add [eax],al
00030AF5  0000              add [eax],al
00030AF7  0000              add [eax],al
00030AF9  0000              add [eax],al
00030AFB  0000              add [eax],al
00030AFD  0000              add [eax],al
00030AFF  0000              add [eax],al
00030B01  0000              add [eax],al
00030B03  0000              add [eax],al
00030B05  0000              add [eax],al
00030B07  0000              add [eax],al
00030B09  0000              add [eax],al
00030B0B  0000              add [eax],al
00030B0D  0000              add [eax],al
00030B0F  0000              add [eax],al
00030B11  0000              add [eax],al
00030B13  0000              add [eax],al
00030B15  0000              add [eax],al
00030B17  0000              add [eax],al
00030B19  0000              add [eax],al
00030B1B  0000              add [eax],al
00030B1D  0000              add [eax],al
00030B1F  0000              add [eax],al
00030B21  0000              add [eax],al
00030B23  0000              add [eax],al
00030B25  0000              add [eax],al
00030B27  0000              add [eax],al
00030B29  0000              add [eax],al
00030B2B  0000              add [eax],al
00030B2D  0000              add [eax],al
00030B2F  0000              add [eax],al
00030B31  0000              add [eax],al
00030B33  0000              add [eax],al
00030B35  0000              add [eax],al
00030B37  0000              add [eax],al
00030B39  0000              add [eax],al
00030B3B  0000              add [eax],al
00030B3D  0000              add [eax],al
00030B3F  0000              add [eax],al
00030B41  0000              add [eax],al
00030B43  0000              add [eax],al
00030B45  0000              add [eax],al
00030B47  0000              add [eax],al
00030B49  0000              add [eax],al
00030B4B  0000              add [eax],al
00030B4D  0000              add [eax],al
00030B4F  0000              add [eax],al
00030B51  0000              add [eax],al
00030B53  0000              add [eax],al
00030B55  0000              add [eax],al
00030B57  0000              add [eax],al
00030B59  0000              add [eax],al
00030B5B  0000              add [eax],al
00030B5D  0000              add [eax],al
00030B5F  0000              add [eax],al
00030B61  0000              add [eax],al
00030B63  0000              add [eax],al
00030B65  0000              add [eax],al
00030B67  0000              add [eax],al
00030B69  0000              add [eax],al
00030B6B  0000              add [eax],al
00030B6D  0000              add [eax],al
00030B6F  0000              add [eax],al
00030B71  0000              add [eax],al
00030B73  0000              add [eax],al
00030B75  0000              add [eax],al
00030B77  0000              add [eax],al
00030B79  0000              add [eax],al
00030B7B  0000              add [eax],al
00030B7D  0000              add [eax],al
00030B7F  0000              add [eax],al
00030B81  0000              add [eax],al
00030B83  0000              add [eax],al
00030B85  0000              add [eax],al
00030B87  0000              add [eax],al
00030B89  0000              add [eax],al
00030B8B  0000              add [eax],al
00030B8D  0000              add [eax],al
00030B8F  0000              add [eax],al
00030B91  0000              add [eax],al
00030B93  0000              add [eax],al
00030B95  0000              add [eax],al
00030B97  0000              add [eax],al
00030B99  0000              add [eax],al
00030B9B  0000              add [eax],al
00030B9D  0000              add [eax],al
00030B9F  0000              add [eax],al
00030BA1  0000              add [eax],al
00030BA3  0000              add [eax],al
00030BA5  0000              add [eax],al
00030BA7  0000              add [eax],al
00030BA9  0000              add [eax],al
00030BAB  0000              add [eax],al
00030BAD  0000              add [eax],al
00030BAF  0000              add [eax],al
00030BB1  0000              add [eax],al
00030BB3  0000              add [eax],al
00030BB5  0000              add [eax],al
00030BB7  0000              add [eax],al
00030BB9  0000              add [eax],al
00030BBB  0000              add [eax],al
00030BBD  0000              add [eax],al
00030BBF  0000              add [eax],al
00030BC1  0000              add [eax],al
00030BC3  0000              add [eax],al
00030BC5  0000              add [eax],al
00030BC7  0000              add [eax],al
00030BC9  0000              add [eax],al
00030BCB  0000              add [eax],al
00030BCD  0000              add [eax],al
00030BCF  0000              add [eax],al
00030BD1  0000              add [eax],al
00030BD3  0000              add [eax],al
00030BD5  0000              add [eax],al
00030BD7  0000              add [eax],al
00030BD9  0000              add [eax],al
00030BDB  0000              add [eax],al
00030BDD  0000              add [eax],al
00030BDF  0000              add [eax],al
00030BE1  0000              add [eax],al
00030BE3  0000              add [eax],al
00030BE5  0000              add [eax],al
00030BE7  0000              add [eax],al
00030BE9  0000              add [eax],al
00030BEB  0000              add [eax],al
00030BED  0000              add [eax],al
00030BEF  0000              add [eax],al
00030BF1  0000              add [eax],al
00030BF3  0000              add [eax],al
00030BF5  0000              add [eax],al
00030BF7  0000              add [eax],al
00030BF9  0000              add [eax],al
00030BFB  0000              add [eax],al
00030BFD  0000              add [eax],al
00030BFF  0000              add [eax],al
00030C01  0000              add [eax],al
00030C03  0000              add [eax],al
00030C05  0000              add [eax],al
00030C07  0000              add [eax],al
00030C09  0000              add [eax],al
00030C0B  0000              add [eax],al
00030C0D  0000              add [eax],al
00030C0F  0000              add [eax],al
00030C11  0000              add [eax],al
00030C13  0000              add [eax],al
00030C15  0000              add [eax],al
00030C17  0000              add [eax],al
00030C19  0000              add [eax],al
00030C1B  0000              add [eax],al
00030C1D  0000              add [eax],al
00030C1F  0000              add [eax],al
00030C21  0000              add [eax],al
00030C23  0000              add [eax],al
00030C25  0000              add [eax],al
00030C27  0000              add [eax],al
00030C29  0000              add [eax],al
00030C2B  0000              add [eax],al
00030C2D  0000              add [eax],al
00030C2F  0000              add [eax],al
00030C31  0000              add [eax],al
00030C33  0000              add [eax],al
00030C35  0000              add [eax],al
00030C37  0000              add [eax],al
00030C39  0000              add [eax],al
00030C3B  0000              add [eax],al
00030C3D  0000              add [eax],al
00030C3F  0000              add [eax],al
00030C41  0000              add [eax],al
00030C43  0000              add [eax],al
00030C45  0000              add [eax],al
00030C47  0000              add [eax],al
00030C49  0000              add [eax],al
00030C4B  0000              add [eax],al
00030C4D  0000              add [eax],al
00030C4F  0000              add [eax],al
00030C51  0000              add [eax],al
00030C53  0000              add [eax],al
00030C55  0000              add [eax],al
00030C57  0000              add [eax],al
00030C59  0000              add [eax],al
00030C5B  0000              add [eax],al
00030C5D  0000              add [eax],al
00030C5F  0000              add [eax],al
00030C61  0000              add [eax],al
00030C63  0000              add [eax],al
00030C65  0000              add [eax],al
00030C67  0000              add [eax],al
00030C69  0000              add [eax],al
00030C6B  0000              add [eax],al
00030C6D  0000              add [eax],al
00030C6F  0000              add [eax],al
00030C71  0000              add [eax],al
00030C73  0000              add [eax],al
00030C75  0000              add [eax],al
00030C77  0000              add [eax],al
00030C79  0000              add [eax],al
00030C7B  0000              add [eax],al
00030C7D  0000              add [eax],al
00030C7F  0000              add [eax],al
00030C81  0000              add [eax],al
00030C83  0000              add [eax],al
00030C85  0000              add [eax],al
00030C87  0000              add [eax],al
00030C89  0000              add [eax],al
00030C8B  0000              add [eax],al
00030C8D  0000              add [eax],al
00030C8F  0000              add [eax],al
00030C91  0000              add [eax],al
00030C93  0000              add [eax],al
00030C95  0000              add [eax],al
00030C97  0000              add [eax],al
00030C99  0000              add [eax],al
00030C9B  0000              add [eax],al
00030C9D  0000              add [eax],al
00030C9F  0000              add [eax],al
00030CA1  0000              add [eax],al
00030CA3  0000              add [eax],al
00030CA5  0000              add [eax],al
00030CA7  0000              add [eax],al
00030CA9  0000              add [eax],al
00030CAB  0000              add [eax],al
00030CAD  0000              add [eax],al
00030CAF  0000              add [eax],al
00030CB1  0000              add [eax],al
00030CB3  0000              add [eax],al
00030CB5  0000              add [eax],al
00030CB7  0000              add [eax],al
00030CB9  0000              add [eax],al
00030CBB  0000              add [eax],al
00030CBD  0000              add [eax],al
00030CBF  0000              add [eax],al
00030CC1  0000              add [eax],al
00030CC3  0000              add [eax],al
00030CC5  0000              add [eax],al
00030CC7  0000              add [eax],al
00030CC9  0000              add [eax],al
00030CCB  0000              add [eax],al
00030CCD  0000              add [eax],al
00030CCF  0000              add [eax],al
00030CD1  0000              add [eax],al
00030CD3  0000              add [eax],al
00030CD5  0000              add [eax],al
00030CD7  0000              add [eax],al
00030CD9  0000              add [eax],al
00030CDB  0000              add [eax],al
00030CDD  0000              add [eax],al
00030CDF  0000              add [eax],al
00030CE1  0000              add [eax],al
00030CE3  0000              add [eax],al
00030CE5  0000              add [eax],al
00030CE7  0000              add [eax],al
00030CE9  0000              add [eax],al
00030CEB  0000              add [eax],al
00030CED  0000              add [eax],al
00030CEF  0000              add [eax],al
00030CF1  0000              add [eax],al
00030CF3  0000              add [eax],al
00030CF5  0000              add [eax],al
00030CF7  0000              add [eax],al
00030CF9  0000              add [eax],al
00030CFB  0000              add [eax],al
00030CFD  0000              add [eax],al
00030CFF  0000              add [eax],al
00030D01  0000              add [eax],al
00030D03  0000              add [eax],al
00030D05  0000              add [eax],al
00030D07  0000              add [eax],al
00030D09  0000              add [eax],al
00030D0B  0000              add [eax],al
00030D0D  0000              add [eax],al
00030D0F  0000              add [eax],al
00030D11  0000              add [eax],al
00030D13  0000              add [eax],al
00030D15  0000              add [eax],al
00030D17  0000              add [eax],al
00030D19  0000              add [eax],al
00030D1B  0000              add [eax],al
00030D1D  0000              add [eax],al
00030D1F  0000              add [eax],al
00030D21  0000              add [eax],al
00030D23  0000              add [eax],al
00030D25  0000              add [eax],al
00030D27  0000              add [eax],al
00030D29  0000              add [eax],al
00030D2B  0000              add [eax],al
00030D2D  0000              add [eax],al
00030D2F  0000              add [eax],al
00030D31  0000              add [eax],al
00030D33  0000              add [eax],al
00030D35  0000              add [eax],al
00030D37  0000              add [eax],al
00030D39  0000              add [eax],al
00030D3B  0000              add [eax],al
00030D3D  0000              add [eax],al
00030D3F  0000              add [eax],al
00030D41  0000              add [eax],al
00030D43  0000              add [eax],al
00030D45  0000              add [eax],al
00030D47  0000              add [eax],al
00030D49  0000              add [eax],al
00030D4B  0000              add [eax],al
00030D4D  0000              add [eax],al
00030D4F  0000              add [eax],al
00030D51  0000              add [eax],al
00030D53  0000              add [eax],al
00030D55  0000              add [eax],al
00030D57  0000              add [eax],al
00030D59  0000              add [eax],al
00030D5B  0000              add [eax],al
00030D5D  0000              add [eax],al
00030D5F  0000              add [eax],al
00030D61  0000              add [eax],al
00030D63  0000              add [eax],al
00030D65  0000              add [eax],al
00030D67  0000              add [eax],al
00030D69  0000              add [eax],al
00030D6B  0000              add [eax],al
00030D6D  0000              add [eax],al
00030D6F  0000              add [eax],al
00030D71  0000              add [eax],al
00030D73  0000              add [eax],al
00030D75  0000              add [eax],al
00030D77  0000              add [eax],al
00030D79  0000              add [eax],al
00030D7B  0000              add [eax],al
00030D7D  0000              add [eax],al
00030D7F  0000              add [eax],al
00030D81  0000              add [eax],al
00030D83  0000              add [eax],al
00030D85  0000              add [eax],al
00030D87  0000              add [eax],al
00030D89  0000              add [eax],al
00030D8B  0000              add [eax],al
00030D8D  0000              add [eax],al
00030D8F  0000              add [eax],al
00030D91  0000              add [eax],al
00030D93  0000              add [eax],al
00030D95  0000              add [eax],al
00030D97  0000              add [eax],al
00030D99  0000              add [eax],al
00030D9B  0000              add [eax],al
00030D9D  0000              add [eax],al
00030D9F  0000              add [eax],al
00030DA1  0000              add [eax],al
00030DA3  0000              add [eax],al
00030DA5  0000              add [eax],al
00030DA7  0000              add [eax],al
00030DA9  0000              add [eax],al
00030DAB  0000              add [eax],al
00030DAD  0000              add [eax],al
00030DAF  0000              add [eax],al
00030DB1  0000              add [eax],al
00030DB3  0000              add [eax],al
00030DB5  0000              add [eax],al
00030DB7  0000              add [eax],al
00030DB9  0000              add [eax],al
00030DBB  0000              add [eax],al
00030DBD  0000              add [eax],al
00030DBF  0000              add [eax],al
00030DC1  0000              add [eax],al
00030DC3  0000              add [eax],al
00030DC5  0000              add [eax],al
00030DC7  0000              add [eax],al
00030DC9  0000              add [eax],al
00030DCB  0000              add [eax],al
00030DCD  0000              add [eax],al
00030DCF  0000              add [eax],al
00030DD1  0000              add [eax],al
00030DD3  0000              add [eax],al
00030DD5  0000              add [eax],al
00030DD7  0000              add [eax],al
00030DD9  0000              add [eax],al
00030DDB  0000              add [eax],al
00030DDD  0000              add [eax],al
00030DDF  0000              add [eax],al
00030DE1  0000              add [eax],al
00030DE3  0000              add [eax],al
00030DE5  0000              add [eax],al
00030DE7  0000              add [eax],al
00030DE9  0000              add [eax],al
00030DEB  0000              add [eax],al
00030DED  0000              add [eax],al
00030DEF  0000              add [eax],al
00030DF1  0000              add [eax],al
00030DF3  0000              add [eax],al
00030DF5  0000              add [eax],al
00030DF7  0000              add [eax],al
00030DF9  0000              add [eax],al
00030DFB  0000              add [eax],al
00030DFD  0000              add [eax],al
00030DFF  0000              add [eax],al
00030E01  0000              add [eax],al
00030E03  0000              add [eax],al
00030E05  0000              add [eax],al
00030E07  0000              add [eax],al
00030E09  0000              add [eax],al
00030E0B  0000              add [eax],al
00030E0D  0000              add [eax],al
00030E0F  0000              add [eax],al
00030E11  0000              add [eax],al
00030E13  0000              add [eax],al
00030E15  0000              add [eax],al
00030E17  0000              add [eax],al
00030E19  0000              add [eax],al
00030E1B  0000              add [eax],al
00030E1D  0000              add [eax],al
00030E1F  0000              add [eax],al
00030E21  0000              add [eax],al
00030E23  0000              add [eax],al
00030E25  0000              add [eax],al
00030E27  0000              add [eax],al
00030E29  0000              add [eax],al
00030E2B  0000              add [eax],al
00030E2D  0000              add [eax],al
00030E2F  0000              add [eax],al
00030E31  0000              add [eax],al
00030E33  0000              add [eax],al
00030E35  0000              add [eax],al
00030E37  0000              add [eax],al
00030E39  0000              add [eax],al
00030E3B  0000              add [eax],al
00030E3D  0000              add [eax],al
00030E3F  0000              add [eax],al
00030E41  0000              add [eax],al
00030E43  0000              add [eax],al
00030E45  0000              add [eax],al
00030E47  0000              add [eax],al
00030E49  0000              add [eax],al
00030E4B  0000              add [eax],al
00030E4D  0000              add [eax],al
00030E4F  0000              add [eax],al
00030E51  0000              add [eax],al
00030E53  0000              add [eax],al
00030E55  0000              add [eax],al
00030E57  0000              add [eax],al
00030E59  0000              add [eax],al
00030E5B  0000              add [eax],al
00030E5D  0000              add [eax],al
00030E5F  0000              add [eax],al
00030E61  0000              add [eax],al
00030E63  0000              add [eax],al
00030E65  0000              add [eax],al
00030E67  0000              add [eax],al
00030E69  0000              add [eax],al
00030E6B  0000              add [eax],al
00030E6D  0000              add [eax],al
00030E6F  0000              add [eax],al
00030E71  0000              add [eax],al
00030E73  0000              add [eax],al
00030E75  0000              add [eax],al
00030E77  0000              add [eax],al
00030E79  0000              add [eax],al
00030E7B  0000              add [eax],al
00030E7D  0000              add [eax],al
00030E7F  0000              add [eax],al
00030E81  0000              add [eax],al
00030E83  0000              add [eax],al
00030E85  0000              add [eax],al
00030E87  0000              add [eax],al
00030E89  0000              add [eax],al
00030E8B  0000              add [eax],al
00030E8D  0000              add [eax],al
00030E8F  0000              add [eax],al
00030E91  0000              add [eax],al
00030E93  0000              add [eax],al
00030E95  0000              add [eax],al
00030E97  0000              add [eax],al
00030E99  0000              add [eax],al
00030E9B  0000              add [eax],al
00030E9D  0000              add [eax],al
00030E9F  0000              add [eax],al
00030EA1  0000              add [eax],al
00030EA3  0000              add [eax],al
00030EA5  0000              add [eax],al
00030EA7  0000              add [eax],al
00030EA9  0000              add [eax],al
00030EAB  0000              add [eax],al
00030EAD  0000              add [eax],al
00030EAF  0000              add [eax],al
00030EB1  0000              add [eax],al
00030EB3  0000              add [eax],al
00030EB5  0000              add [eax],al
00030EB7  0000              add [eax],al
00030EB9  0000              add [eax],al
00030EBB  0000              add [eax],al
00030EBD  0000              add [eax],al
00030EBF  0000              add [eax],al
00030EC1  0000              add [eax],al
00030EC3  0000              add [eax],al
00030EC5  0000              add [eax],al
00030EC7  0000              add [eax],al
00030EC9  0000              add [eax],al
00030ECB  0000              add [eax],al
00030ECD  0000              add [eax],al
00030ECF  0000              add [eax],al
00030ED1  0000              add [eax],al
00030ED3  0000              add [eax],al
00030ED5  0000              add [eax],al
00030ED7  0000              add [eax],al
00030ED9  0000              add [eax],al
00030EDB  0000              add [eax],al
00030EDD  0000              add [eax],al
00030EDF  0000              add [eax],al
00030EE1  0000              add [eax],al
00030EE3  0000              add [eax],al
00030EE5  0000              add [eax],al
00030EE7  0000              add [eax],al
00030EE9  0000              add [eax],al
00030EEB  0000              add [eax],al
00030EED  0000              add [eax],al
00030EEF  0000              add [eax],al
00030EF1  0000              add [eax],al
00030EF3  0000              add [eax],al
00030EF5  0000              add [eax],al
00030EF7  0000              add [eax],al
00030EF9  0000              add [eax],al
00030EFB  0000              add [eax],al
00030EFD  0000              add [eax],al
00030EFF  0000              add [eax],al
00030F01  0000              add [eax],al
00030F03  0000              add [eax],al
00030F05  0000              add [eax],al
00030F07  0000              add [eax],al
00030F09  0000              add [eax],al
00030F0B  0000              add [eax],al
00030F0D  0000              add [eax],al
00030F0F  0000              add [eax],al
00030F11  0000              add [eax],al
00030F13  0000              add [eax],al
00030F15  0000              add [eax],al
00030F17  0000              add [eax],al
00030F19  0000              add [eax],al
00030F1B  0000              add [eax],al
00030F1D  0000              add [eax],al
00030F1F  0000              add [eax],al
00030F21  0000              add [eax],al
00030F23  0000              add [eax],al
00030F25  0000              add [eax],al
00030F27  0000              add [eax],al
00030F29  0000              add [eax],al
00030F2B  0000              add [eax],al
00030F2D  0000              add [eax],al
00030F2F  0000              add [eax],al
00030F31  0000              add [eax],al
00030F33  0000              add [eax],al
00030F35  0000              add [eax],al
00030F37  0000              add [eax],al
00030F39  0000              add [eax],al
00030F3B  0000              add [eax],al
00030F3D  0000              add [eax],al
00030F3F  0000              add [eax],al
00030F41  0000              add [eax],al
00030F43  0000              add [eax],al
00030F45  0000              add [eax],al
00030F47  0000              add [eax],al
00030F49  0000              add [eax],al
00030F4B  0000              add [eax],al
00030F4D  0000              add [eax],al
00030F4F  0000              add [eax],al
00030F51  0000              add [eax],al
00030F53  0000              add [eax],al
00030F55  0000              add [eax],al
00030F57  0000              add [eax],al
00030F59  0000              add [eax],al
00030F5B  0000              add [eax],al
00030F5D  0000              add [eax],al
00030F5F  0000              add [eax],al
00030F61  0000              add [eax],al
00030F63  0000              add [eax],al
00030F65  0000              add [eax],al
00030F67  0000              add [eax],al
00030F69  0000              add [eax],al
00030F6B  0000              add [eax],al
00030F6D  0000              add [eax],al
00030F6F  0000              add [eax],al
00030F71  0000              add [eax],al
00030F73  0000              add [eax],al
00030F75  0000              add [eax],al
00030F77  0000              add [eax],al
00030F79  0000              add [eax],al
00030F7B  0000              add [eax],al
00030F7D  0000              add [eax],al
00030F7F  0000              add [eax],al
00030F81  0000              add [eax],al
00030F83  0000              add [eax],al
00030F85  0000              add [eax],al
00030F87  0000              add [eax],al
00030F89  0000              add [eax],al
00030F8B  0000              add [eax],al
00030F8D  0000              add [eax],al
00030F8F  0000              add [eax],al
00030F91  0000              add [eax],al
00030F93  0000              add [eax],al
00030F95  0000              add [eax],al
00030F97  0000              add [eax],al
00030F99  0000              add [eax],al
00030F9B  0000              add [eax],al
00030F9D  0000              add [eax],al
00030F9F  0000              add [eax],al
00030FA1  0000              add [eax],al
00030FA3  0000              add [eax],al
00030FA5  0000              add [eax],al
00030FA7  0000              add [eax],al
00030FA9  0000              add [eax],al
00030FAB  0000              add [eax],al
00030FAD  0000              add [eax],al
00030FAF  0000              add [eax],al
00030FB1  0000              add [eax],al
00030FB3  0000              add [eax],al
00030FB5  0000              add [eax],al
00030FB7  0000              add [eax],al
00030FB9  0000              add [eax],al
00030FBB  0000              add [eax],al
00030FBD  0000              add [eax],al
00030FBF  0000              add [eax],al
00030FC1  0000              add [eax],al
00030FC3  0000              add [eax],al
00030FC5  0000              add [eax],al
00030FC7  0000              add [eax],al
00030FC9  0000              add [eax],al
00030FCB  0000              add [eax],al
00030FCD  0000              add [eax],al
00030FCF  0000              add [eax],al
00030FD1  0000              add [eax],al
00030FD3  0000              add [eax],al
00030FD5  0000              add [eax],al
00030FD7  0000              add [eax],al
00030FD9  0000              add [eax],al
00030FDB  0000              add [eax],al
00030FDD  0000              add [eax],al
00030FDF  0000              add [eax],al
00030FE1  0000              add [eax],al
00030FE3  0000              add [eax],al
00030FE5  0000              add [eax],al
00030FE7  0000              add [eax],al
00030FE9  0000              add [eax],al
00030FEB  0000              add [eax],al
00030FED  0000              add [eax],al
00030FEF  0000              add [eax],al
00030FF1  0000              add [eax],al
00030FF3  0000              add [eax],al
00030FF5  0000              add [eax],al
00030FF7  0000              add [eax],al
00030FF9  0000              add [eax],al
00030FFB  0000              add [eax],al
00030FFD  0000              add [eax],al
00030FFF  0000              add [eax],al
00031001  0000              add [eax],al
00031003  004743            add [edi+0x43],al
00031006  43                inc ebx
00031007  3A20              cmp ah,[eax]
00031009  28474E            sub [edi+0x4e],al
0003100C  55                push ebp
0003100D  2920              sub [eax],esp
0003100F  342E              xor al,0x2e
00031011  342E              xor al,0x2e
00031013  3220              xor ah,[eax]
00031015  3230              xor dh,[eax]
00031017  3039              xor [ecx],bh
00031019  3130              xor [eax],esi
0003101B  3237              xor dh,[edi]
0003101D  2028              and [eax],ch
0003101F  52                push edx
00031020  6564204861        and [fs:eax+0x61],cl
00031025  7420              jz 0x31047
00031027  342E              xor al,0x2e
00031029  342E              xor al,0x2e
0003102B  322D37290000      xor ch,[dword 0x2937]
00031031  2E7368            cs jnc 0x3109c
00031034  7374              jnc 0x310aa
00031036  7274              jc 0x310ac
00031038  61                popad
00031039  6200              bound eax,[eax]
0003103B  2E7465            cs jz 0x310a3
0003103E  7874              js 0x310b4
00031040  002E              add [esi],ch
00031042  726F              jc 0x310b3
00031044  6461              fs popad
00031046  7461              jz 0x310a9
00031048  002E              add [esi],ch
0003104A  6461              fs popad
0003104C  7461              jz 0x310af
0003104E  002E              add [esi],ch
00031050  627373            bound esi,[ebx+0x73]
00031053  002E              add [esi],ch
00031055  636F6D            arpl [edi+0x6d],bp
00031058  6D                insd
00031059  656E              gs outsb
0003105B  7400              jz 0x3105d
0003105D  0000              add [eax],al
0003105F  0000              add [eax],al
00031061  0000              add [eax],al
00031063  0000              add [eax],al
00031065  0000              add [eax],al
00031067  0000              add [eax],al
00031069  0000              add [eax],al
0003106B  0000              add [eax],al
0003106D  0000              add [eax],al
0003106F  0000              add [eax],al
00031071  0000              add [eax],al
00031073  0000              add [eax],al
00031075  0000              add [eax],al
00031077  0000              add [eax],al
00031079  0000              add [eax],al
0003107B  0000              add [eax],al
0003107D  0000              add [eax],al
0003107F  0000              add [eax],al
00031081  0000              add [eax],al
00031083  0000              add [eax],al
00031085  0000              add [eax],al
00031087  000B              add [ebx],cl
00031089  0000              add [eax],al
0003108B  0001              add [ecx],al
0003108D  0000              add [eax],al
0003108F  0006              add [esi],al
00031091  0000              add [eax],al
00031093  0000              add [eax],al
00031095  0403              add al,0x3
00031097  0000              add [eax],al
00031099  0400              add al,0x0
0003109B  00FE              add dh,bh
0003109D  0000              add [eax],al
0003109F  0000              add [eax],al
000310A1  0000              add [eax],al
000310A3  0000              add [eax],al
000310A5  0000              add [eax],al
000310A7  0010              add [eax],dl
000310A9  0000              add [eax],al
000310AB  0000              add [eax],al
000310AD  0000              add [eax],al
000310AF  0011              add [ecx],dl
000310B1  0000              add [eax],al
000310B3  0001              add [ecx],al
000310B5  0000              add [eax],al
000310B7  0002              add [edx],al
000310B9  0000              add [eax],al
000310BB  0000              add [eax],al
000310BD  0503000005        add eax,0x5000003
000310C2  0000              add [eax],al
000310C4  50                push eax
000310C5  0000              add [eax],al
000310C7  0000              add [eax],al
000310C9  0000              add [eax],al
000310CB  0000              add [eax],al
000310CD  0000              add [eax],al
000310CF  000400            add [eax+eax],al
000310D2  0000              add [eax],al
000310D4  0000              add [eax],al
000310D6  0000              add [eax],al
000310D8  1900              sbb [eax],eax
000310DA  0000              add [eax],al
000310DC  0100              add [eax],eax
000310DE  0000              add [eax],al
000310E0  0300              add eax,[eax]
000310E2  0000              add [eax],al
000310E4  0010              add [eax],dl
000310E6  0300              add eax,[eax]
000310E8  0010              add [eax],dl
000310EA  0000              add [eax],al
000310EC  0400              add al,0x0
000310EE  0000              add [eax],al
000310F0  0000              add [eax],al
000310F2  0000              add [eax],al
000310F4  0000              add [eax],al
000310F6  0000              add [eax],al
000310F8  0400              add al,0x0
000310FA  0000              add [eax],al
000310FC  0000              add [eax],al
000310FE  0000              add [eax],al
00031100  1F                pop ds
00031101  0000              add [eax],al
00031103  0008              add [eax],cl
00031105  0000              add [eax],al
00031107  0003              add [ebx],al
00031109  0000              add [eax],al
0003110B  0020              add [eax],ah
0003110D  1003              adc [ebx],al
0003110F  000410            add [eax+edx],al
00031112  0000              add [eax],al
00031114  080C00            or [eax+eax],cl
00031117  0000              add [eax],al
00031119  0000              add [eax],al
0003111B  0000              add [eax],al
0003111D  0000              add [eax],al
0003111F  0020              add [eax],ah
00031121  0000              add [eax],al
00031123  0000              add [eax],al
00031125  0000              add [eax],al
00031127  002400            add [eax+eax],ah
0003112A  0000              add [eax],al
0003112C  0100              add [eax],eax
0003112E  0000              add [eax],al
00031130  3000              xor [eax],al
00031132  0000              add [eax],al
00031134  0000              add [eax],al
00031136  0000              add [eax],al
00031138  0410              add al,0x10
0003113A  0000              add [eax],al
0003113C  2C00              sub al,0x0
0003113E  0000              add [eax],al
00031140  0000              add [eax],al
00031142  0000              add [eax],al
00031144  0000              add [eax],al
00031146  0000              add [eax],al
00031148  0100              add [eax],eax
0003114A  0000              add [eax],al
0003114C  0100              add [eax],eax
0003114E  0000              add [eax],al
00031150  0100              add [eax],eax
00031152  0000              add [eax],al
00031154  0300              add eax,[eax]
00031156  0000              add [eax],al
00031158  0000              add [eax],al
0003115A  0000              add [eax],al
0003115C  0000              add [eax],al
0003115E  0000              add [eax],al
00031160  3010              xor [eax],dl
00031162  0000              add [eax],al
00031164  2D00000000        sub eax,0x0
00031169  0000              add [eax],al
0003116B  0000              add [eax],al
0003116D  0000              add [eax],al
0003116F  0001              add [ecx],al
00031171  0000              add [eax],al
00031173  0000              add [eax],al
00031175  0000              add [eax],al
00031177  00                db 0x00
